; Function Attrs: mustprogress uwtable
define void @_ZNK6casadi9LogSumExp8generateERNS_13CodeGeneratorERKSt6vectorIxSaIxEES7_(ptr nocapture noundef nonnull readonly align 8 dereferenceable(64) %0, ptr noundef nonnull align 8 dereferenceable(3097) %1, ptr nocapture noundef nonnull readonly align 8 dereferenceable(24) %2, ptr nocapture noundef nonnull readonly align 8 dereferenceable(24) %3) unnamed_addr #3 align 2 personality ptr @__gxx_personality_v0 {
  %5 = alloca %"class.std::__cxx11::basic_string", align 8
  %6 = alloca %"class.std::__cxx11::basic_string", align 8
  %7 = alloca %"class.std::__cxx11::basic_string", align 8
  %8 = load ptr, ptr %3, align 8
  %9 = load i64, ptr %8, align 8
  call void @_ZNK6casadi13CodeGenerator6workelB5cxx11Ex(ptr dead_on_unwind nonnull writable sret(%"class.std::__cxx11::basic_string") align 8 %5, ptr noundef nonnull align 8 dereferenceable(3097) %1, i64 noundef %9)
  %10 = invoke noundef nonnull align 8 dereferenceable(3097) ptr @_ZN6casadi13CodeGeneratorlsERKNSt7__cxx1112basic_stringIcSt11char_traitsIcESaIcEEE(ptr noundef nonnull align 8 dereferenceable(3097) %1, ptr noundef nonnull align 8 dereferenceable(32) %5)
          to label %11 unwind label %34

11:                                               ; preds = %4
  %12 = invoke noundef nonnull align 8 dereferenceable(3097) ptr @_ZN6casadi13CodeGeneratorlsIPKcEERS0_T_(ptr noundef nonnull align 8 dereferenceable(3097) %10, ptr noundef nonnull @.str.2)
          to label %13 unwind label %34

13:                                               ; preds = %11
  %14 = load ptr, ptr %2, align 8
  %15 = load i64, ptr %14, align 8
  %16 = getelementptr inbounds i8, ptr %0, i64 32
  %17 = getelementptr inbounds i8, ptr %0, i64 40
  %18 = load ptr, ptr %17, align 8
  %19 = load ptr, ptr %16, align 8
  %.not.i.i.i.not = icmp eq ptr %18, %19
  br i1 %.not.i.i.i.not, label %20, label %_ZNK6casadi6MXNode3depEx.exit

20:                                               ; preds = %13
  invoke void (ptr, ...) @_ZSt24__throw_out_of_range_fmtPKcz(ptr noundef nonnull @.str.4, i64 noundef 0, i64 noundef 0) #14
          to label %.noexc unwind label %34

.noexc:                                           ; preds = %20
  unreachable

_ZNK6casadi6MXNode3depEx.exit:                    ; preds = %13
  %21 = invoke noundef nonnull align 8 dereferenceable(8) ptr @_ZNK6casadi2MX8sparsityEv(ptr noundef nonnull align 8 dereferenceable(8) %19)
          to label %.noexc12 unwind label %34

.noexc12:                                         ; preds = %_ZNK6casadi6MXNode3depEx.exit
  %22 = invoke noundef i64 @_ZNK6casadi8Sparsity3nnzEv(ptr noundef nonnull align 8 dereferenceable(8) %21)
          to label %_ZNK6casadi13GenericMatrixINS_2MXEE3nnzEv.exit unwind label %34

_ZNK6casadi13GenericMatrixINS_2MXEE3nnzEv.exit:   ; preds = %.noexc12
  invoke void @_ZNK6casadi13CodeGenerator4workB5cxx11Exx(ptr dead_on_unwind nonnull writable sret(%"class.std::__cxx11::basic_string") align 8 %7, ptr noundef nonnull align 8 dereferenceable(3097) %1, i64 noundef %15, i64 noundef %22)
          to label %23 unwind label %34

23:                                               ; preds = %_ZNK6casadi13GenericMatrixINS_2MXEE3nnzEv.exit
  %24 = load ptr, ptr %17, align 8
  %25 = load ptr, ptr %16, align 8
  %.not.i.i.i14.not = icmp eq ptr %24, %25
  br i1 %.not.i.i.i14.not, label %26, label %_ZNK6casadi6MXNode3depEx.exit16

26:                                               ; preds = %23
  invoke void (ptr, ...) @_ZSt24__throw_out_of_range_fmtPKcz(ptr noundef nonnull @.str.4, i64 noundef 0, i64 noundef 0) #14
          to label %.noexc15 unwind label %36

.noexc15:                                         ; preds = %26
  unreachable

_ZNK6casadi6MXNode3depEx.exit16:                  ; preds = %23
  %27 = invoke noundef nonnull align 8 dereferenceable(8) ptr @_ZNK6casadi2MX8sparsityEv(ptr noundef nonnull align 8 dereferenceable(8) %25)
          to label %.noexc17 unwind label %36

.noexc17:                                         ; preds = %_ZNK6casadi6MXNode3depEx.exit16
  %28 = invoke noundef i64 @_ZNK6casadi8Sparsity3nnzEv(ptr noundef nonnull align 8 dereferenceable(8) %27)
          to label %_ZNK6casadi13GenericMatrixINS_2MXEE3nnzEv.exit19 unwind label %36

_ZNK6casadi13GenericMatrixINS_2MXEE3nnzEv.exit19: ; preds = %.noexc17
  invoke void @_ZN6casadi13CodeGenerator9logsumexpERKNSt7__cxx1112basic_stringIcSt11char_traitsIcESaIcEEEx(ptr dead_on_unwind nonnull writable sret(%"class.std::__cxx11::basic_string") align 8 %6, ptr noundef nonnull align 8 dereferenceable(3097) %1, ptr noundef nonnull align 8 dereferenceable(32) %7, i64 noundef %28)
          to label %29 unwind label %36

29:                                               ; preds = %_ZNK6casadi13GenericMatrixINS_2MXEE3nnzEv.exit19
  %30 = invoke noundef nonnull align 8 dereferenceable(3097) ptr @_ZN6casadi13CodeGeneratorlsERKNSt7__cxx1112basic_stringIcSt11char_traitsIcESaIcEEE(ptr noundef nonnull align 8 dereferenceable(3097) %12, ptr noundef nonnull align 8 dereferenceable(32) %6)
          to label %31 unwind label %38

31:                                               ; preds = %29
  %32 = invoke noundef nonnull align 8 dereferenceable(3097) ptr @_ZN6casadi13CodeGeneratorlsIPKcEERS0_T_(ptr noundef nonnull align 8 dereferenceable(3097) %30, ptr noundef nonnull @.str.3)
          to label %33 unwind label %38

33:                                               ; preds = %31
  call void @_ZNSt7__cxx1112basic_stringIcSt11char_traitsIcESaIcEED1Ev(ptr noundef nonnull align 8 dereferenceable(32) %6) #13
  call void @_ZNSt7__cxx1112basic_stringIcSt11char_traitsIcESaIcEED1Ev(ptr noundef nonnull align 8 dereferenceable(32) %7) #13
  call void @_ZNSt7__cxx1112basic_stringIcSt11char_traitsIcESaIcEED1Ev(ptr noundef nonnull align 8 dereferenceable(32) %5) #13
  ret void

34:                                               ; preds = %.noexc12, %_ZNK6casadi6MXNode3depEx.exit, %20, %_ZNK6casadi13GenericMatrixINS_2MXEE3nnzEv.exit, %11, %4
  %35 = landingpad { ptr, i32 }
          cleanup
  br label %41

36:                                               ; preds = %.noexc17, %_ZNK6casadi6MXNode3depEx.exit16, %26, %_ZNK6casadi13GenericMatrixINS_2MXEE3nnzEv.exit19
  %37 = landingpad { ptr, i32 }
          cleanup
  br label %40

38:                                               ; preds = %31, %29
  %39 = landingpad { ptr, i32 }
          cleanup
  call void @_ZNSt7__cxx1112basic_stringIcSt11char_traitsIcESaIcEED1Ev(ptr noundef nonnull align 8 dereferenceable(32) %6) #13
  br label %40

40:                                               ; preds = %38, %36
  %.pn = phi { ptr, i32 } [ %39, %38 ], [ %37, %36 ]
  call void @_ZNSt7__cxx1112basic_stringIcSt11char_traitsIcESaIcEED1Ev(ptr noundef nonnull align 8 dereferenceable(32) %7) #13
  br label %41

41:                                               ; preds = %40, %34
  %.pn.pn = phi { ptr, i32 } [ %.pn, %40 ], [ %35, %34 ]
  call void @_ZNSt7__cxx1112basic_stringIcSt11char_traitsIcESaIcEED1Ev(ptr noundef nonnull align 8 dereferenceable(32) %5) #13
  resume { ptr, i32 } %.pn.pn
}